target datalayout = "e-m:e-p270:32:32-p271:32:32-p272:64:64-i64:64-i128:128-f80:128-n8:16:32:64-S128"
target triple = "x86_64-pc-linux-gnu"

%struct.H5D_shared_t = type { i64, i8, i64, ptr, ptr, i64, i64, %struct.H5D_dcpl_cache_t, %struct.H5O_layout_t, i8, i32, [32 x i64], [32 x i64], [32 x i64], %struct.anon.6, %struct.H5D_append_flush_t, ptr, ptr }
%struct.H5D_dcpl_cache_t = type { %struct.H5O_fill_t, %struct.H5O_pline_t, %struct.H5O_efl_t }
%struct.H5O_fill_t = type { %struct.H5O_shared_t, i32, ptr, i64, ptr, i32, i32, i8 }
%struct.H5O_shared_t = type { i32, ptr, i32, %union.anon }
%union.anon = type { %struct.H5O_mesg_loc_t }
%struct.H5O_mesg_loc_t = type { i32, i64 }
%struct.H5O_pline_t = type { %struct.H5O_shared_t, i32, i64, i64, ptr }
%struct.H5O_efl_t = type { i64, i64, i64, ptr }
%struct.H5O_layout_t = type { i32, i32, ptr, %union.anon.0, %struct.H5O_storage_t }
%union.anon.0 = type { %struct.H5O_layout_chunk_t }
%struct.H5O_layout_chunk_t = type { i32, i8, i32, [33 x i32], i32, i32, i64, i64, [33 x i64], [33 x i64], [33 x i64], [33 x i64], %union.anon.1 }
%union.anon.1 = type { %struct.H5O_layout_chunk_earray_t }
%struct.H5O_layout_chunk_earray_t = type { %struct.anon.2, i32, [33 x i32], [33 x i64], [33 x i64] }
%struct.anon.2 = type { i8, i8, i8, i8, i8 }
%struct.H5O_storage_t = type { i32, %union.anon.4 }
%union.anon.4 = type { %struct.H5O_storage_virtual_t }
%struct.H5O_storage_virtual_t = type { %struct.H5HG_t, i64, ptr, i64, [32 x i64], i32, i64, i64, i64, i8 }
%struct.H5HG_t = type { i64, i64 }
%struct.anon.6 = type { %struct.H5D_rdcdc_t, %struct.H5D_rdcc_t }
%struct.H5D_rdcdc_t = type { ptr, i64, i64, i64, i8 }
%struct.H5D_rdcc_t = type { %struct.anon.7, i64, i64, double, ptr, ptr, ptr, i64, i32, %struct.H5D_chunk_cached_t, ptr, ptr, ptr, ptr, [32 x i64], [32 x i64], [32 x i32] }
%struct.anon.7 = type { i32, i32, i32, i32 }
%struct.H5D_chunk_cached_t = type { i8, [33 x i64], i64, i32, i64, i32 }
%struct.H5D_append_flush_t = type { i32, [32 x i64], ptr, ptr }
%struct.H5D_t = type { %struct.H5O_loc_t, %struct.H5G_name_t, ptr }
%struct.H5O_loc_t = type { ptr, i64, i8 }
%struct.H5G_name_t = type { ptr, ptr, i32 }

@H5D_init_g = external global i8, align 1
@H5_libterm_g = external global i8, align 1
@.str.2 = private unnamed_addr constant [100 x i8] c"generated/home/dtcxzyw/WorkSpace/Projects/compilers/llvm-opt-benchmark/bench/hdf5/hdf5/src/H5Dint.c\00", align 1
@H5E_CANTINIT_g = external global i64, align 8
@H5E_DATASET_g = external global i64, align 8
@H5E_CLOSEERROR_g = external global i64, align 8
@.str.49 = private unnamed_addr constant [28 x i8] c"unable to release dataspace\00", align 1
@.str.92 = private unnamed_addr constant [24 x i8] c"unable to get dataspace\00", align 1
@H5E_CANTREGISTER_g = external global i64, align 8
@__func__.H5D__get_space = private unnamed_addr constant [15 x i8] c"H5D__get_space\00", align 1
@.str.182 = private unnamed_addr constant [40 x i8] c"unable to update virtual dataset extent\00", align 1
@H5E_ID_g = external global i64, align 8
@.str.183 = private unnamed_addr constant [29 x i8] c"unable to register dataspace\00", align 1

; Function Attrs: nounwind uwtable
define i64 @H5D__get_space(ptr noundef %0) #0 {
  %2 = alloca ptr, align 8
  %3 = alloca ptr, align 8
  %4 = alloca i64, align 8
  %5 = alloca i8, align 1
  store ptr %0, ptr %2, align 8, !tbaa !49
  call void @llvm.lifetime.start.p0(i64 8, ptr %3) #12
  store ptr null, ptr %3, align 8, !tbaa !48
  call void @llvm.lifetime.start.p0(i64 8, ptr %4) #12
  store i64 -1, ptr %4, align 8, !tbaa !11
  call void @llvm.lifetime.start.p0(i64 1, ptr %5) #12
  store i8 0, ptr %5, align 1, !tbaa !7
  %6 = load i8, ptr @H5D_init_g, align 1, !tbaa !7, !range !9, !noundef !10
  %7 = trunc i8 %6 to i1
  br i1 %7, label %12, label %8

8:                                                ; preds = %1
  %9 = load i8, ptr @H5_libterm_g, align 1, !tbaa !7, !range !9, !noundef !10
  %10 = trunc i8 %9 to i1
  %11 = xor i1 %10, true
  br label %12

12:                                               ; preds = %8, %1
  %13 = phi i1 [ true, %1 ], [ %11, %8 ]
  %14 = xor i1 %13, true
  %15 = xor i1 %14, true
  %16 = zext i1 %15 to i32
  %17 = sext i32 %16 to i64
  %18 = call i64 @llvm.expect.i64(i64 %17, i64 1)
  %19 = icmp ne i64 %18, 0
  br i1 %19, label %20, label %132

20:                                               ; preds = %12
  %21 = load ptr, ptr %2, align 8, !tbaa !49
  %22 = getelementptr inbounds nuw %struct.H5D_t, ptr %21, i32 0, i32 2
  %23 = load ptr, ptr %22, align 8, !tbaa !61
  %24 = getelementptr inbounds nuw %struct.H5D_shared_t, ptr %23, i32 0, i32 8
  %25 = getelementptr inbounds nuw %struct.H5O_layout_t, ptr %24, i32 0, i32 0
  %26 = load i32, ptr %25, align 8, !tbaa !67
  %27 = icmp eq i32 %26, 3
  br i1 %27, label %28, label %52

28:                                               ; preds = %20
  %29 = load ptr, ptr %2, align 8, !tbaa !49
  %30 = call i32 @H5D__virtual_set_extent_unlim(ptr noundef %29)
  %31 = icmp slt i32 %30, 0
  br i1 %31, label %32, label %51

32:                                               ; preds = %28
  br label %33

33:                                               ; preds = %32
  br label %34

34:                                               ; preds = %33
  br label %35

35:                                               ; preds = %34
  %36 = load i64, ptr @H5E_DATASET_g, align 8, !tbaa !11
  %37 = load i64, ptr @H5E_CANTINIT_g, align 8, !tbaa !11
  %38 = call i32 (ptr, ptr, i32, i64, i64, ptr, ...) @H5E_printf_stack(ptr noundef @.str.2, ptr noundef @__func__.H5D__get_space, i32 noundef 3922, i64 noundef %36, i64 noundef %37, ptr noundef @.str.182)
  br label %39

39:                                               ; preds = %35
  br label %40

40:                                               ; preds = %39
  store i8 1, ptr %5, align 1, !tbaa !7
  %41 = load i8, ptr %5, align 1, !tbaa !7, !range !9, !noundef !10
  %42 = trunc i8 %41 to i1
  %43 = zext i1 %42 to i8
  store i8 %43, ptr %5, align 1, !tbaa !7
  br label %44

44:                                               ; preds = %40
  br label %45

45:                                               ; preds = %44
  br label %46

46:                                               ; preds = %45
  store i64 -1, ptr %4, align 8, !tbaa !11
  br label %103

47:                                               ; No predecessors!
  br label %48

48:                                               ; preds = %47
  br label %49

49:                                               ; preds = %48
  br label %50

50:                                               ; preds = %49
  br label %51

51:                                               ; preds = %50, %28
  br label %52

52:                                               ; preds = %51, %20
  %53 = load ptr, ptr %2, align 8, !tbaa !49
  %54 = getelementptr inbounds nuw %struct.H5D_t, ptr %53, i32 0, i32 2
  %55 = load ptr, ptr %54, align 8, !tbaa !61
  %56 = getelementptr inbounds nuw %struct.H5D_shared_t, ptr %55, i32 0, i32 4
  %57 = load ptr, ptr %56, align 8, !tbaa !69
  %58 = call ptr @H5S_copy(ptr noundef %57, i1 noundef zeroext false, i1 noundef zeroext true)
  store ptr %58, ptr %3, align 8, !tbaa !48
  %59 = icmp eq ptr null, %58
  br i1 %59, label %60, label %79

60:                                               ; preds = %52
  br label %61

61:                                               ; preds = %60
  br label %62

62:                                               ; preds = %61
  br label %63

63:                                               ; preds = %62
  %64 = load i64, ptr @H5E_DATASET_g, align 8, !tbaa !11
  %65 = load i64, ptr @H5E_CANTINIT_g, align 8, !tbaa !11
  %66 = call i32 (ptr, ptr, i32, i64, i64, ptr, ...) @H5E_printf_stack(ptr noundef @.str.2, ptr noundef @__func__.H5D__get_space, i32 noundef 3926, i64 noundef %64, i64 noundef %65, ptr noundef @.str.92)
  br label %67

67:                                               ; preds = %63
  br label %68

68:                                               ; preds = %67
  store i8 1, ptr %5, align 1, !tbaa !7
  %69 = load i8, ptr %5, align 1, !tbaa !7, !range !9, !noundef !10
  %70 = trunc i8 %69 to i1
  %71 = zext i1 %70 to i8
  store i8 %71, ptr %5, align 1, !tbaa !7
  br label %72

72:                                               ; preds = %68
  br label %73

73:                                               ; preds = %72
  br label %74

74:                                               ; preds = %73
  store i64 -1, ptr %4, align 8, !tbaa !11
  br label %103

75:                                               ; No predecessors!
  br label %76

76:                                               ; preds = %75
  br label %77

77:                                               ; preds = %76
  br label %78

78:                                               ; preds = %77
  br label %79

79:                                               ; preds = %78, %52
  %80 = load ptr, ptr %3, align 8, !tbaa !48
  %81 = call i64 @H5I_register(i32 noundef 4, ptr noundef %80, i1 noundef zeroext true)
  store i64 %81, ptr %4, align 8, !tbaa !11
  %82 = icmp slt i64 %81, 0
  br i1 %82, label %83, label %102

83:                                               ; preds = %79
  br label %84

84:                                               ; preds = %83
  br label %85

85:                                               ; preds = %84
  br label %86

86:                                               ; preds = %85
  %87 = load i64, ptr @H5E_ID_g, align 8, !tbaa !11
  %88 = load i64, ptr @H5E_CANTREGISTER_g, align 8, !tbaa !11
  %89 = call i32 (ptr, ptr, i32, i64, i64, ptr, ...) @H5E_printf_stack(ptr noundef @.str.2, ptr noundef @__func__.H5D__get_space, i32 noundef 3930, i64 noundef %87, i64 noundef %88, ptr noundef @.str.183)
  br label %90

90:                                               ; preds = %86
  br label %91

91:                                               ; preds = %90
  store i8 1, ptr %5, align 1, !tbaa !7
  %92 = load i8, ptr %5, align 1, !tbaa !7, !range !9, !noundef !10
  %93 = trunc i8 %92 to i1
  %94 = zext i1 %93 to i8
  store i8 %94, ptr %5, align 1, !tbaa !7
  br label %95

95:                                               ; preds = %91
  br label %96

96:                                               ; preds = %95
  br label %97

97:                                               ; preds = %96
  store i64 -1, ptr %4, align 8, !tbaa !11
  br label %103

98:                                               ; No predecessors!
  br label %99

99:                                               ; preds = %98
  br label %100

100:                                              ; preds = %99
  br label %101

101:                                              ; preds = %100
  br label %102

102:                                              ; preds = %101, %79
  br label %103

103:                                              ; preds = %102, %97, %74, %46
  %104 = load i64, ptr %4, align 8, !tbaa !11
  %105 = icmp slt i64 %104, 0
  br i1 %105, label %106, label %131

106:                                              ; preds = %103
  %107 = load ptr, ptr %3, align 8, !tbaa !48
  %108 = icmp ne ptr %107, null
  br i1 %108, label %109, label %130

109:                                              ; preds = %106
  %110 = load ptr, ptr %3, align 8, !tbaa !48
  %111 = call i32 @H5S_close(ptr noundef %110)
  %112 = icmp slt i32 %111, 0
  br i1 %112, label %113, label %129

113:                                              ; preds = %109
  br label %114

114:                                              ; preds = %113
  br label %115

115:                                              ; preds = %114
  br label %116

116:                                              ; preds = %115
  %117 = load i64, ptr @H5E_DATASET_g, align 8, !tbaa !11
  %118 = load i64, ptr @H5E_CLOSEERROR_g, align 8, !tbaa !11
  %119 = call i32 (ptr, ptr, i32, i64, i64, ptr, ...) @H5E_printf_stack(ptr noundef @.str.2, ptr noundef @__func__.H5D__get_space, i32 noundef 3936, i64 noundef %117, i64 noundef %118, ptr noundef @.str.49)
  br label %120

120:                                              ; preds = %116
  br label %121

121:                                              ; preds = %120
  store i8 1, ptr %5, align 1, !tbaa !7
  %122 = load i8, ptr %5, align 1, !tbaa !7, !range !9, !noundef !10
  %123 = trunc i8 %122 to i1
  %124 = zext i1 %123 to i8
  store i8 %124, ptr %5, align 1, !tbaa !7
  br label %125

125:                                              ; preds = %121
  br label %126

126:                                              ; preds = %125
  store i64 -1, ptr %4, align 8, !tbaa !11
  br label %127

127:                                              ; preds = %126
  br label %128

128:                                              ; preds = %127
  br label %129

129:                                              ; preds = %128, %109
  br label %130

130:                                              ; preds = %129, %106
  br label %131

131:                                              ; preds = %130, %103
  br label %132

132:                                              ; preds = %131, %12
  %133 = load i64, ptr %4, align 8, !tbaa !11
  call void @llvm.lifetime.end.p0(i64 1, ptr %5) #12
  call void @llvm.lifetime.end.p0(i64 8, ptr %4) #12
  call void @llvm.lifetime.end.p0(i64 8, ptr %3) #12
  ret i64 %133
}