; Function Attrs: nounwind uwtable
define range(i64 -1, -9223372036854775808) i64 @H5D__get_space(ptr noundef %0) local_unnamed_addr #0 {
  %2 = load i8, ptr @H5D_init_g, align 1, !tbaa !3, !range !7, !noundef !8
  %3 = trunc nuw i8 %2 to i1
  %4 = load i8, ptr @H5_libterm_g, align 1, !range !7
  %5 = trunc nuw i8 %4 to i1
  %6 = xor i1 %5, true
  %7 = select i1 %3, i1 true, i1 %6
  br i1 %7, label %8, label %.thread, !prof !9

8:                                                ; preds = %1
  %9 = getelementptr inbounds nuw i8, ptr %0, i64 48
  %10 = load ptr, ptr %9, align 8, !tbaa !52
  %11 = getelementptr inbounds nuw i8, ptr %10, i64 248
  %12 = load i32, ptr %11, align 8, !tbaa !58
  %13 = icmp eq i32 %12, 3
  br i1 %13, label %14, label %21

14:                                               ; preds = %8
  %15 = tail call i32 @H5D__virtual_set_extent_unlim(ptr noundef nonnull %0) #12
  %16 = icmp slt i32 %15, 0
  br i1 %16, label %17, label %._crit_edge

._crit_edge:                                      ; preds = %14
  %.pre = load ptr, ptr %9, align 8, !tbaa !52
  br label %21

17:                                               ; preds = %14
  %18 = load i64, ptr @H5E_DATASET_g, align 8, !tbaa !10
  %19 = load i64, ptr @H5E_CANTINIT_g, align 8, !tbaa !10
  %20 = tail call i32 (ptr, ptr, i32, i64, i64, ptr, ...) @H5E_printf_stack(ptr noundef nonnull @.str.2, ptr noundef nonnull @__func__.H5D__get_space, i32 noundef 3922, i64 noundef %18, i64 noundef %19, ptr noundef nonnull @.str.182) #12
  br label %.thread

21:                                               ; preds = %._crit_edge, %8
  %22 = phi ptr [ %.pre, %._crit_edge ], [ %10, %8 ]
  %23 = getelementptr inbounds nuw i8, ptr %22, i64 32
  %24 = load ptr, ptr %23, align 8, !tbaa !60
  %25 = tail call ptr @H5S_copy(ptr noundef %24, i1 noundef zeroext false, i1 noundef zeroext true) #12
  %26 = icmp eq ptr %25, null
  br i1 %26, label %27, label %31

27:                                               ; preds = %21
  %28 = load i64, ptr @H5E_DATASET_g, align 8, !tbaa !10
  %29 = load i64, ptr @H5E_CANTINIT_g, align 8, !tbaa !10
  %30 = tail call i32 (ptr, ptr, i32, i64, i64, ptr, ...) @H5E_printf_stack(ptr noundef nonnull @.str.2, ptr noundef nonnull @__func__.H5D__get_space, i32 noundef 3926, i64 noundef %28, i64 noundef %29, ptr noundef nonnull @.str.92) #12
  br label %.thread

31:                                               ; preds = %21
  %32 = tail call i64 @H5I_register(i32 noundef 4, ptr noundef nonnull %25, i1 noundef zeroext true) #12
  %33 = icmp slt i64 %32, 0
  br i1 %33, label %34, label %.thread

34:                                               ; preds = %31
  %35 = load i64, ptr @H5E_ID_g, align 8, !tbaa !10
  %36 = load i64, ptr @H5E_CANTREGISTER_g, align 8, !tbaa !10
  %37 = tail call i32 (ptr, ptr, i32, i64, i64, ptr, ...) @H5E_printf_stack(ptr noundef nonnull @.str.2, ptr noundef nonnull @__func__.H5D__get_space, i32 noundef 3930, i64 noundef %35, i64 noundef %36, ptr noundef nonnull @.str.183) #12
  %38 = tail call i32 @H5S_close(ptr noundef nonnull %25) #12
  %39 = icmp slt i32 %38, 0
  br i1 %39, label %40, label %.thread

40:                                               ; preds = %34
  %41 = load i64, ptr @H5E_DATASET_g, align 8, !tbaa !10
  %42 = load i64, ptr @H5E_CLOSEERROR_g, align 8, !tbaa !10
  %43 = tail call i32 (ptr, ptr, i32, i64, i64, ptr, ...) @H5E_printf_stack(ptr noundef nonnull @.str.2, ptr noundef nonnull @__func__.H5D__get_space, i32 noundef 3936, i64 noundef %41, i64 noundef %42, ptr noundef nonnull @.str.49) #12
  br label %.thread

.thread:                                          ; preds = %27, %17, %31, %34, %40, %1
  %.0 = phi i64 [ -1, %40 ], [ -1, %34 ], [ -1, %1 ], [ %32, %31 ], [ -1, %27 ], [ -1, %17 ]
  ret i64 %.0
}